Certificate:
    Data:
        Version: 3 (0x2)
        Serial Number: 1 (0x1)
        Signature Algorithm: md5WithRSAEncryption
        Issuer: C=US, ST=CA, L=Santa Clara, O=My Company Ltd, OU=Inmage, CN=figueroa.inside.abhaisystems.com/emailAddress=inmage@inmage.com
        Validity
            Not Before: Jul  1 22:42:10 2005 GMT
            Not After : Jul  1 22:42:10 2006 GMT
        Subject: C=US, ST=CA, L=Santa Clara, O=My Company Ltd, OU=inmage, CN=figueroa.inside.abhaisystems.com/emailAddress=inmage@inmage.com
        Subject Public Key Info:
            Public Key Algorithm: rsaEncryption
            RSA Public Key: (1024 bit)
                Modulus (1024 bit):
                    00:bc:d0:56:f0:28:7e:9b:c8:a4:5b:fd:3b:48:9e:
                    da:69:f4:db:db:be:72:fc:e6:29:39:14:6c:13:f0:
                    ec:6a:59:37:ad:ef:1e:07:a7:7f:53:28:86:f4:d7:
                    40:83:45:04:b4:8d:58:11:6d:8e:c6:8b:ae:d7:d8:
                    b0:dc:0a:42:bf:c6:7b:c0:22:1d:58:0b:13:60:03:
                    08:4c:0a:57:7b:4c:a4:10:3f:0b:4a:5f:5f:9d:26:
                    5f:ee:48:97:6d:a8:14:eb:40:e0:84:31:95:7e:02:
                    c7:ee:46:8f:29:b6:ce:5f:b7:8f:47:e2:80:46:ad:
                    41:93:b7:9d:4e:b5:ff:4c:4b
                Exponent: 65537 (0x10001)
        X509v3 extensions:
            X509v3 Basic Constraints: 
            CA:FALSE
            Netscape Comment: 
            OpenSSL Generated Certificate
            X509v3 Subject Key Identifier: 
            4D:91:F3:B2:A9:85:A1:42:30:0E:D9:27:6F:4E:81:EA:27:B5:5D:83
            X509v3 Authority Key Identifier: 
            keyid:E8:69:54:7B:37:1F:BF:82:0A:A7:B8:23:28:AE:DC:9B:AD:4E:53:03
            DirName:/C=US/ST=CA/L=Santa Clara/O=My Company Ltd/OU=Inmage/CN=figueroa.inside.abhaisystems.com/emailAddress=inmage@inmage.com
            serial:00

    Signature Algorithm: md5WithRSAEncryption
        33:c3:21:7a:fa:8c:27:1d:e5:2d:1c:ad:41:ea:50:4f:4a:df:
        b8:33:a9:a2:d9:3f:a9:79:e7:bb:32:93:36:87:78:b4:7f:f4:
        0e:8f:e6:1a:fc:e1:57:6d:c2:37:71:07:46:e2:6f:33:db:89:
        93:9e:5a:8b:fe:04:ed:96:bc:a0:90:1a:10:8b:e5:51:5a:61:
        64:9b:1e:3f:e0:3e:65:0c:a3:a8:3c:84:3b:48:6b:3b:da:24:
        df:22:19:27:0a:4f:10:3c:57:32:77:b7:ce:ce:95:6d:e5:e5:
        d9:f7:cb:56:f7:40:50:50:bc:67:dc:65:25:f3:e6:0e:57:a6:
        e9:9c
-----BEGIN CERTIFICATE-----
MIID+zCCA2SgAwIBAgIBATANBgkqhkiG9w0BAQQFADCBpzELMAkGA1UEBhMCVVMx
CzAJBgNVBAgTAkNBMRQwEgYDVQQHEwtTYW50YSBDbGFyYTEXMBUGA1UEChMOTXkg
Q29tcGFueSBMdGQxDzANBgNVBAsTBklubWFnZTEpMCcGA1UEAxMgZmlndWVyb2Eu
aW5zaWRlLmFiaGFpc3lzdGVtcy5jb20xIDAeBgkqhkiG9w0BCQEWEWlubWFnZUBp
bm1hZ2UuY29tMB4XDTA1MDcwMTIyNDIxMFoXDTA2MDcwMTIyNDIxMFowgacxCzAJ
BgNVBAYTAlVTMQswCQYDVQQIEwJDQTEUMBIGA1UEBxMLU2FudGEgQ2xhcmExFzAV
BgNVBAoTDk15IENvbXBhbnkgTHRkMQ8wDQYDVQQLEwZpbm1hZ2UxKTAnBgNVBAMT
IGZpZ3Vlcm9hLmluc2lkZS5hYmhhaXN5c3RlbXMuY29tMSAwHgYJKoZIhvcNAQkB
FhFpbm1hZ2VAaW5tYWdlLmNvbTCBnzANBgkqhkiG9w0BAQEFAAOBjQAwgYkCgYEA
vNBW8Ch+m8ikW/07SJ7aafTb275y/OYpORRsE/Dsalk3re8eB6d/UyiG9NdAg0UE
tI1YEW2Oxouu19iw3ApCv8Z7wCIdWAsTYAMITApXe0ykED8LSl9fnSZf7kiXbagU
60DghDGVfgLH7kaPKbbOX7ePR+KARq1Bk7edTrX/TEsCAwEAAaOCATMwggEvMAkG
A1UdEwQCMAAwLAYJYIZIAYb4QgENBB8WHU9wZW5TU0wgR2VuZXJhdGVkIENlcnRp
ZmljYXRlMB0GA1UdDgQWBBRNkfOyqYWhQjAO2SdvToHqJ7VdgzCB1AYDVR0jBIHM
MIHJgBToaVR7Nx+/ggqnuCMortybrU5TA6GBraSBqjCBpzELMAkGA1UEBhMCVVMx
CzAJBgNVBAgTAkNBMRQwEgYDVQQHEwtTYW50YSBDbGFyYTEXMBUGA1UEChMOTXkg
Q29tcGFueSBMdGQxDzANBgNVBAsTBklubWFnZTEpMCcGA1UEAxMgZmlndWVyb2Eu
aW5zaWRlLmFiaGFpc3lzdGVtcy5jb20xIDAeBgkqhkiG9w0BCQEWEWlubWFnZUBp
bm1hZ2UuY29tggEAMA0GCSqGSIb3DQEBBAUAA4GBADPDIXr6jCcd5S0crUHqUE9K
37gzqaLZP6l557sykzaHeLR/9A6P5hr84VdtwjdxB0bibzPbiZOeWov+BO2WvKCQ
GhCL5VFaYWSbHj/gPmUMo6g8hDtIazvaJN8iGScKTxA8VzJ3t87OlW3l5dn3y1b3
QFBQvGfcZSXz5g5Xpumc
-----END CERTIFICATE-----
