Certificate:
    Data:
        Version: 3 (0x2)
        Serial Number:
            a9:30:ad:e2:cf:49:32:54
        Signature Algorithm: sha1WithRSAEncryption
        Issuer: C=US, ST=CA, O=InMage Systems, OU=Scout WEB server, CN=InMage
        Validity
            Not Before: Apr 23 04:38:08 2010 GMT
            Not After : Apr 18 04:38:08 2030 GMT
        Subject: C=US, ST=CA, O=InMage Systems, OU=Scout WEB server, CN=InMage
        Subject Public Key Info:
            Public Key Algorithm: rsaEncryption
            RSA Public Key: (1024 bit)
                Modulus (1024 bit):
                    00:aa:5c:08:62:23:ab:ee:00:6c:9f:53:c2:65:28:
                    39:15:f6:16:9f:1f:9d:22:56:e9:a4:88:0b:e0:05:
                    64:c2:10:03:64:2f:be:5b:33:59:e2:bd:8b:70:19:
                    81:99:00:42:e3:55:f2:df:c5:e6:5e:ba:49:97:d4:
                    94:90:03:ae:fa:59:3d:5d:51:0e:7a:71:81:ea:44:
                    ce:a4:c4:3e:09:73:82:c8:18:81:37:dc:be:2b:41:
                    9b:f9:ea:2d:e2:65:0d:80:77:f8:30:b2:74:90:95:
                    ab:5d:fc:b7:b8:b8:80:30:d5:1b:b4:62:06:fc:ee:
                    11:f4:1b:0f:91:ea:4d:5e:a9
                Exponent: 65537 (0x10001)
        X509v3 extensions:
            X509v3 Subject Key Identifier: 
                90:0E:42:C2:C0:28:AA:C3:1B:51:65:F7:6C:14:90:61:44:22:5A:B2
            X509v3 Authority Key Identifier: 
                keyid:90:0E:42:C2:C0:28:AA:C3:1B:51:65:F7:6C:14:90:61:44:22:5A:B2
                DirName:/C=US/ST=CA/O=InMage Systems/OU=Scout WEB server/CN=InMage
                serial:A9:30:AD:E2:CF:49:32:54

            X509v3 Basic Constraints: 
                CA:TRUE
    Signature Algorithm: sha1WithRSAEncryption
        98:06:8b:58:21:73:84:93:76:1c:21:9f:0d:ef:d8:80:9c:72:
        b5:cc:ee:ff:7b:ee:53:7d:1b:c1:03:88:bb:69:99:d3:5b:4d:
        19:cb:e7:38:17:dd:a5:d4:ba:2f:1b:1a:03:5f:60:72:f5:a1:
        bf:c3:a6:c6:0f:88:bc:65:16:27:2a:8d:79:b5:b1:a2:3e:bc:
        e0:a4:26:43:b2:43:c5:68:70:ee:e3:c0:23:ce:22:7a:26:5c:
        e8:51:4f:93:4a:6f:02:8a:7e:42:d9:93:26:fd:f7:ad:18:34:
        87:d2:d3:a3:5b:95:c6:05:67:27:5b:26:9c:8e:a5:00:d1:7a:
        d4:81
-----BEGIN CERTIFICATE-----
MIIDATCCAmqgAwIBAgIJAKkwreLPSTJUMA0GCSqGSIb3DQEBBQUAMF8xCzAJBgNV
BAYTAlVTMQswCQYDVQQIEwJDQTEXMBUGA1UEChMOSW5NYWdlIFN5c3RlbXMxGTAX
BgNVBAsTEFNjb3V0IFdFQiBzZXJ2ZXIxDzANBgNVBAMTBkluTWFnZTAeFw0xMDA0
MjMwNDM4MDhaFw0zMDA0MTgwNDM4MDhaMF8xCzAJBgNVBAYTAlVTMQswCQYDVQQI
EwJDQTEXMBUGA1UEChMOSW5NYWdlIFN5c3RlbXMxGTAXBgNVBAsTEFNjb3V0IFdF
QiBzZXJ2ZXIxDzANBgNVBAMTBkluTWFnZTCBnzANBgkqhkiG9w0BAQEFAAOBjQAw
gYkCgYEAqlwIYiOr7gBsn1PCZSg5FfYWnx+dIlbppIgL4AVkwhADZC++WzNZ4r2L
cBmBmQBC41Xy38XmXrpJl9SUkAOu+lk9XVEOenGB6kTOpMQ+CXOCyBiBN9y+K0Gb
+eot4mUNgHf4MLJ0kJWrXfy3uLiAMNUbtGIG/O4R9BsPkepNXqkCAwEAAaOBxDCB
wTAdBgNVHQ4EFgQUkA5CwsAoqsMbUWX3bBSQYUQiWrIwgZEGA1UdIwSBiTCBhoAU
kA5CwsAoqsMbUWX3bBSQYUQiWrKhY6RhMF8xCzAJBgNVBAYTAlVTMQswCQYDVQQI
EwJDQTEXMBUGA1UEChMOSW5NYWdlIFN5c3RlbXMxGTAXBgNVBAsTEFNjb3V0IFdF
QiBzZXJ2ZXIxDzANBgNVBAMTBkluTWFnZYIJAKkwreLPSTJUMAwGA1UdEwQFMAMB
Af8wDQYJKoZIhvcNAQEFBQADgYEAmAaLWCFzhJN2HCGfDe/YgJxytczu/3vuU30b
wQOIu2mZ01tNGcvnOBfdpdS6LxsaA19gcvWhv8Omxg+IvGUWJyqNebWxoj684KQm
Q7JDxWhw7uPAI84ieiZc6FFPk0pvAop+QtmTJv33rRg0h9LTo1uVxgVnJ1smnI6l
ANF61IE=
-----END CERTIFICATE-----
