Certificate:
    Data:
        Version: 3 (0x2)
        Serial Number:
            a9:30:ad:e2:cf:49:32:55
        Signature Algorithm: sha1WithRSAEncryption
        Issuer: C=US, ST=CA, O=InMage Systems, OU=Scout WEB server, CN=InMage
        Validity
            Not Before: Apr 23 04:38:59 2010 GMT
            Not After : Apr 18 04:38:59 2030 GMT
        Subject: C=US, ST=CA, L=Santa Clara, O=InMage Systems, OU=Scout WEB server, CN=InMage
        Subject Public Key Info:
            Public Key Algorithm: rsaEncryption
            RSA Public Key: (1024 bit)
                Modulus (1024 bit):
                    00:c2:9f:08:a9:34:7d:fe:c4:f6:c8:7a:39:9b:b3:
                    3f:bf:2e:65:54:61:9c:e6:69:e2:fa:90:cb:65:cd:
                    36:3c:a5:9f:b9:94:1b:67:b8:43:02:ba:89:14:3d:
                    3f:65:f0:0d:1a:22:90:17:9a:ae:0e:fb:bc:2c:7c:
                    74:b0:46:c8:a8:4a:b1:3e:61:6e:31:0e:8e:f4:08:
                    70:fe:4b:a0:26:00:c5:df:8d:c9:08:94:03:9e:a3:
                    c0:da:9c:bc:98:84:26:00:60:13:90:b4:23:ea:01:
                    9a:63:38:8d:67:4e:e5:78:c5:ea:9c:04:97:22:8e:
                    fa:00:69:1a:21:e8:e7:d6:c1
                Exponent: 65537 (0x10001)
        X509v3 extensions:
            X509v3 Basic Constraints: 
                CA:FALSE
            Netscape Comment: 
                OpenSSL Generated Certificate
            X509v3 Subject Key Identifier: 
                26:B2:5C:FE:B4:75:08:C9:4A:48:09:5B:CE:B7:50:3E:47:30:02:2C
            X509v3 Authority Key Identifier: 
                keyid:90:0E:42:C2:C0:28:AA:C3:1B:51:65:F7:6C:14:90:61:44:22:5A:B2

    Signature Algorithm: sha1WithRSAEncryption
        84:cd:ef:69:7d:22:64:4c:0d:bd:bc:92:21:aa:6f:26:ce:2e:
        ad:d9:aa:f3:53:5c:6e:7f:43:ec:b8:af:a8:64:e7:fe:63:0f:
        8e:9f:3a:a8:0a:13:67:65:36:19:d3:fd:37:9c:b9:d6:4d:43:
        56:cf:5a:37:e3:3d:6c:8d:5f:1d:5e:ca:c1:25:03:20:e9:f6:
        13:bb:99:75:ec:7a:69:fd:06:59:50:3d:7f:03:65:6a:fe:e1:
        e5:d1:79:41:9f:92:21:08:d6:0d:55:2e:71:10:f3:c1:79:aa:
        91:d7:aa:40:ba:de:47:f4:e0:61:71:ea:9d:fe:8f:52:6c:37:
        4b:30
-----BEGIN CERTIFICATE-----
MIICzTCCAjagAwIBAgIJAKkwreLPSTJVMA0GCSqGSIb3DQEBBQUAMF8xCzAJBgNV
BAYTAlVTMQswCQYDVQQIEwJDQTEXMBUGA1UEChMOSW5NYWdlIFN5c3RlbXMxGTAX
BgNVBAsTEFNjb3V0IFdFQiBzZXJ2ZXIxDzANBgNVBAMTBkluTWFnZTAeFw0xMDA0
MjMwNDM4NTlaFw0zMDA0MTgwNDM4NTlaMHUxCzAJBgNVBAYTAlVTMQswCQYDVQQI
EwJDQTEUMBIGA1UEBxMLU2FudGEgQ2xhcmExFzAVBgNVBAoTDkluTWFnZSBTeXN0
ZW1zMRkwFwYDVQQLExBTY291dCBXRUIgc2VydmVyMQ8wDQYDVQQDEwZJbk1hZ2Uw
gZ8wDQYJKoZIhvcNAQEBBQADgY0AMIGJAoGBAMKfCKk0ff7E9sh6OZuzP78uZVRh
nOZp4vqQy2XNNjyln7mUG2e4QwK6iRQ9P2XwDRoikBearg77vCx8dLBGyKhKsT5h
bjEOjvQIcP5LoCYAxd+NyQiUA56jwNqcvJiEJgBgE5C0I+oBmmM4jWdO5XjF6pwE
lyKO+gBpGiHo59bBAgMBAAGjezB5MAkGA1UdEwQCMAAwLAYJYIZIAYb4QgENBB8W
HU9wZW5TU0wgR2VuZXJhdGVkIENlcnRpZmljYXRlMB0GA1UdDgQWBBQmslz+tHUI
yUpICVvOt1A+RzACLDAfBgNVHSMEGDAWgBSQDkLCwCiqwxtRZfdsFJBhRCJasjAN
BgkqhkiG9w0BAQUFAAOBgQCEze9pfSJkTA29vJIhqm8mzi6t2arzU1xuf0PsuK+o
ZOf+Yw+OnzqoChNnZTYZ0/03nLnWTUNWz1o34z1sjV8dXsrBJQMg6fYTu5l17Hpp
/QZZUD1/A2Vq/uHl0XlBn5IhCNYNVS5xEPPBeaqR16pAut5H9OBhceqd/o9SbDdL
MA==
-----END CERTIFICATE-----
