Certificate:
    Data:
        Version: 3 (0x2)
        Serial Number: 1 (0x1)
        Signature Algorithm: md5WithRSAEncryption
        Issuer: C=US, ST=CA, L=Santa Clara, O=Inmage, OU=Inmage, CN=Inmage/emailAddress=Inmage@inmage.com
        Validity
            Not Before: Jul  1 20:19:53 2005 GMT
            Not After : Jul  1 20:19:53 2006 GMT
        Subject: C=US, ST=CA, L=Santa Clara, O=Inmage, OU=Inmage, CN=Inmage/emailAddress=Inmage@inmage.com
        Subject Public Key Info:
            Public Key Algorithm: rsaEncryption
            RSA Public Key: (1024 bit)
                Modulus (1024 bit):
                    00:e0:58:d8:90:02:3d:23:a2:bf:4e:0b:8c:34:e4:
                    0c:21:fd:54:e0:29:76:30:17:ca:bf:b0:c4:6d:a0:
                    7e:63:f6:ec:4f:9f:27:45:ca:26:20:cc:cd:40:d7:
                    19:35:cc:e1:19:82:63:1b:f3:e9:8b:7b:f5:40:0f:
                    85:e5:7e:9a:e7:80:00:ac:32:92:ac:7c:b3:a2:0a:
                    26:e1:2d:73:76:ee:95:25:db:cb:41:9c:77:e0:bb:
                    37:69:86:ea:0d:cc:9a:58:59:4d:8f:a2:53:5d:6a:
                    dd:13:07:30:25:ab:cd:da:c4:14:11:5c:40:a2:19:
                    b3:6f:de:32:99:69:c0:b2:19
                Exponent: 65537 (0x10001)
        X509v3 extensions:
            X509v3 Basic Constraints: 
            CA:FALSE
            Netscape Comment: 
            OpenSSL Generated Certificate
            X509v3 Subject Key Identifier: 
            A6:C3:E0:CB:31:83:D0:65:FB:AD:08:0B:2D:F2:24:61:0E:AC:93:53
            X509v3 Authority Key Identifier: 
            keyid:2D:E2:CC:C1:32:36:DD:72:AC:61:EE:23:E7:6D:CE:39:34:15:A0:6E
            DirName:/C=US/ST=CA/L=Santa Clara/O=Inmage/OU=Inmage/CN=Inmage/emailAddress=Inmage@inmage.com
            serial:00

    Signature Algorithm: md5WithRSAEncryption
        52:e8:0c:94:9d:c3:41:9d:8d:61:2f:fe:68:96:94:89:00:9c:
        ec:24:1d:89:3f:1c:bf:4f:ce:5d:f7:4c:e5:fe:0b:b8:8e:63:
        39:b4:06:aa:c2:e4:dc:38:f0:17:2e:a8:da:37:a9:30:1c:1a:
        29:e6:7a:82:c1:1c:ad:52:d1:03:39:b3:e5:40:95:f6:63:bf:
        bb:14:5b:c6:dc:02:8f:41:f5:e0:fd:d4:d4:fe:e5:64:bd:87:
        96:c6:c2:5d:66:38:ad:f1:9a:09:61:07:93:ef:25:d3:68:ef:
        54:df:85:a3:1f:c6:f6:85:a3:17:29:8f:fc:06:5a:d0:86:3f:
        4d:f6
-----BEGIN CERTIFICATE-----
MIIDlTCCAv6gAwIBAgIBATANBgkqhkiG9w0BAQQFADCBhTELMAkGA1UEBhMCVVMx
CzAJBgNVBAgTAkNBMRQwEgYDVQQHEwtTYW50YSBDbGFyYTEPMA0GA1UEChMGSW5t
YWdlMQ8wDQYDVQQLEwZJbm1hZ2UxDzANBgNVBAMTBklubWFnZTEgMB4GCSqGSIb3
DQEJARYRSW5tYWdlQGlubWFnZS5jb20wHhcNMDUwNzAxMjAxOTUzWhcNMDYwNzAx
MjAxOTUzWjCBhTELMAkGA1UEBhMCVVMxCzAJBgNVBAgTAkNBMRQwEgYDVQQHEwtT
YW50YSBDbGFyYTEPMA0GA1UEChMGSW5tYWdlMQ8wDQYDVQQLEwZJbm1hZ2UxDzAN
BgNVBAMTBklubWFnZTEgMB4GCSqGSIb3DQEJARYRSW5tYWdlQGlubWFnZS5jb20w
gZ8wDQYJKoZIhvcNAQEBBQADgY0AMIGJAoGBAOBY2JACPSOiv04LjDTkDCH9VOAp
djAXyr+wxG2gfmP27E+fJ0XKJiDMzUDXGTXM4RmCYxvz6Yt79UAPheV+mueAAKwy
kqx8s6IKJuEtc3bulSXby0Gcd+C7N2mG6g3MmlhZTY+iU11q3RMHMCWrzdrEFBFc
QKIZs2/eMplpwLIZAgMBAAGjggERMIIBDTAJBgNVHRMEAjAAMCwGCWCGSAGG+EIB
DQQfFh1PcGVuU1NMIEdlbmVyYXRlZCBDZXJ0aWZpY2F0ZTAdBgNVHQ4EFgQUpsPg
yzGD0GX7rQgLLfIkYQ6sk1MwgbIGA1UdIwSBqjCBp4AULeLMwTI23XKsYe4j523O
OTQVoG6hgYukgYgwgYUxCzAJBgNVBAYTAlVTMQswCQYDVQQIEwJDQTEUMBIGA1UE
BxMLU2FudGEgQ2xhcmExDzANBgNVBAoTBklubWFnZTEPMA0GA1UECxMGSW5tYWdl
MQ8wDQYDVQQDEwZJbm1hZ2UxIDAeBgkqhkiG9w0BCQEWEUlubWFnZUBpbm1hZ2Uu
Y29tggEAMA0GCSqGSIb3DQEBBAUAA4GBAFLoDJSdw0GdjWEv/miWlIkAnOwkHYk/
HL9Pzl33TOX+C7iOYzm0BqrC5Nw48BcuqNo3qTAcGinmeoLBHK1S0QM5s+VAlfZj
v7sUW8bcAo9B9eD91NT+5WS9h5bGwl1mOK3xmglhB5PvJdNo71TfhaMfxvaFoxcp
j/wGWtCGP032
-----END CERTIFICATE-----
